; ModuleID = 'source-C-CXX/55/2688.c'
source_filename = "source-C-CXX/55/2688.c"
target datalayout = "e-m:e-p270:32:32-p271:32:32-p272:64:64-i64:64-f80:128-n8:16:32:64-S128"
target triple = "x86_64-pc-linux-gnu"

@.str = private unnamed_addr constant [3 x i8] c"%d\00", align 1

; Function Attrs: nofree nounwind sspstrong uwtable
define dso_local void @main() local_unnamed_addr #0 {
  %1 = alloca i32, align 4
  %2 = bitcast i32* %1 to i8*
  call void @llvm.lifetime.start.p0i8(i64 4, i8* nonnull %2) #3
  %3 = call i32 (i8*, ...) @__isoc99_scanf(i8* getelementptr inbounds ([3 x i8], [3 x i8]* @.str, i64 0, i64 0), i32* nonnull %1)
  %4 = load i32, i32* %1, align 4, !tbaa !5
  %5 = srem i32 %4, 10
  %6 = call i32 (i8*, ...) @printf(i8* nonnull dereferenceable(1) getelementptr inbounds ([3 x i8], [3 x i8]* @.str, i64 0, i64 0), i32 %5) #3
  %7 = add i32 %4, 9
  %8 = icmp ult i32 %7, 19
  br i1 %8, label %16, label %9

9:                                                ; preds = %0, %9
  %10 = phi i32 [ %11, %9 ], [ %4, %0 ]
  %11 = sdiv i32 %10, 10
  %12 = srem i32 %11, 10
  %13 = call i32 (i8*, ...) @printf(i8* nonnull dereferenceable(1) getelementptr inbounds ([3 x i8], [3 x i8]* @.str, i64 0, i64 0), i32 %12) #3
  %14 = add nsw i32 %11, 9
  %15 = icmp ult i32 %14, 19
  br i1 %15, label %16, label %9

16:                                               ; preds = %9, %0
  call void @llvm.lifetime.end.p0i8(i64 4, i8* nonnull %2) #3
  ret void
}

; Function Attrs: argmemonly mustprogress nofree nosync nounwind willreturn
declare void @llvm.lifetime.start.p0i8(i64 immarg, i8* nocapture) #1

; Function Attrs: nofree nounwind
declare noundef i32 @__isoc99_scanf(i8* nocapture noundef readonly, ...) local_unnamed_addr #2

; Function Attrs: argmemonly mustprogress nofree nosync nounwind willreturn
declare void @llvm.lifetime.end.p0i8(i64 immarg, i8* nocapture) #1

; Function Attrs: nofree nounwind sspstrong uwtable
define dso_local i32 @r(i32 %0) local_unnamed_addr #0 {
  %2 = srem i32 %0, 10
  %3 = tail call i32 (i8*, ...) @printf(i8* nonnull dereferenceable(1) getelementptr inbounds ([3 x i8], [3 x i8]* @.str, i64 0, i64 0), i32 %2)
  %4 = add i32 %0, 9
  %5 = icmp ult i32 %4, 19
  br i1 %5, label %13, label %6

6:                                                ; preds = %1, %6
  %7 = phi i32 [ %8, %6 ], [ %0, %1 ]
  %8 = sdiv i32 %7, 10
  %9 = srem i32 %8, 10
  %10 = tail call i32 (i8*, ...) @printf(i8* nonnull dereferenceable(1) getelementptr inbounds ([3 x i8], [3 x i8]* @.str, i64 0, i64 0), i32 %9)
  %11 = add nsw i32 %8, 9
  %12 = icmp ult i32 %11, 19
  br i1 %12, label %13, label %6

13:                                               ; preds = %6, %1
  ret i32 undef
}

; Function Attrs: nofree nounwind
declare noundef i32 @printf(i8* nocapture noundef readonly, ...) local_unnamed_addr #2


!llvm.module.flags = !{!0, !1, !2, !3}
!llvm.ident = !{!4}

!0 = !{i32 1, !"wchar_size", i32 4}
!1 = !{i32 7, !"PIC Level", i32 2}
!2 = !{i32 7, !"PIE Level", i32 2}
!3 = !{i32 7, !"uwtable", i32 1}
!4 = !{!"clang version 13.0.0"}
!5 = !{!6, !6, i64 0}
!6 = !{!"int", !7, i64 0}
!7 = !{!"omnipotent char", !8, i64 0}
!8 = !{!"Simple C/C++ TBAA"}
